target datalayout = "e-m:e-p270:32:32-p271:32:32-p272:64:64-i64:64-i128:128-f80:128-n8:16:32:64-S128"
target triple = "x86_64-pc-linux-gnu"

%struct._zval_struct = type { %union._zend_value, %union.anon, %union.anon.2 }
%union._zend_value = type { i64 }
%union.anon = type { i32 }
%union.anon.2 = type { i32 }
%struct._zend_array = type { %struct._zend_refcounted_h, %union.anon.4, i32, %union.anon.6, i32, i32, i32, i32, i64, ptr }
%struct._zend_refcounted_h = type { i32, %union.anon.3 }
%union.anon.3 = type { i32 }
%union.anon.4 = type { i32 }
%union.anon.6 = type { ptr }
%struct._zend_string = type { %struct._zend_refcounted_h, i64, i64, [1 x i8] }

@configuration_hash = internal global %struct._zend_array zeroinitializer, align 8

; Function Attrs: nounwind uwtable
define dso_local i32 @cfg_get_string(ptr noundef %0, ptr noundef %1) #0 {
  %3 = alloca i32, align 4
  %4 = alloca ptr, align 8
  %5 = alloca ptr, align 8
  %6 = alloca ptr, align 8
  %7 = alloca i32, align 4
  store ptr %0, ptr %4, align 8, !tbaa !64
  store ptr %1, ptr %5, align 8, !tbaa !108
  call void @llvm.lifetime.start.p0(i64 8, ptr %6) #14
  %8 = load ptr, ptr %4, align 8, !tbaa !64
  %9 = load ptr, ptr %4, align 8, !tbaa !64
  %10 = call i64 @strlen(ptr noundef %9) #15
  %11 = call ptr @zend_hash_str_find(ptr noundef @configuration_hash, ptr noundef %8, i64 noundef %10)
  store ptr %11, ptr %6, align 8, !tbaa !55
  %12 = icmp eq ptr %11, null
  br i1 %12, label %13, label %15

13:                                               ; preds = %2
  %14 = load ptr, ptr %5, align 8, !tbaa !108
  store ptr null, ptr %14, align 8, !tbaa !64
  store i32 -1, ptr %3, align 4
  store i32 1, ptr %7, align 4
  br label %22

15:                                               ; preds = %2
  %16 = load ptr, ptr %6, align 8, !tbaa !55
  %17 = getelementptr inbounds nuw %struct._zval_struct, ptr %16, i32 0, i32 0
  %18 = load ptr, ptr %17, align 8, !tbaa !51
  %19 = getelementptr inbounds nuw %struct._zend_string, ptr %18, i32 0, i32 3
  %20 = getelementptr inbounds [1 x i8], ptr %19, i64 0, i64 0
  %21 = load ptr, ptr %5, align 8, !tbaa !108
  store ptr %20, ptr %21, align 8, !tbaa !64
  store i32 0, ptr %3, align 4
  store i32 1, ptr %7, align 4
  br label %22

22:                                               ; preds = %15, %13
  call void @llvm.lifetime.end.p0(i64 8, ptr %6) #14
  %23 = load i32, ptr %3, align 4
  ret i32 %23
}