; Function Attrs: nounwind uwtable
define dso_local range(i32 -1, 1) i32 @cfg_get_string(ptr noundef %0, ptr noundef writeonly captures(none) initializes((0, 8)) %1) local_unnamed_addr #0 {
  %3 = tail call i64 @strlen(ptr noundef nonnull dereferenceable(1) %0) #17
  %4 = tail call ptr @zend_hash_str_find(ptr noundef nonnull @configuration_hash, ptr noundef nonnull %0, i64 noundef %3) #16
  %5 = icmp eq ptr %4, null
  br i1 %5, label %9, label %6

6:                                                ; preds = %2
  %7 = load ptr, ptr %4, align 8, !tbaa !47
  %8 = getelementptr inbounds nuw i8, ptr %7, i64 24
  br label %9

9:                                                ; preds = %2, %6
  %storemerge = phi ptr [ %8, %6 ], [ null, %2 ]
  %.0 = phi i32 [ 0, %6 ], [ -1, %2 ]
  store ptr %storemerge, ptr %1, align 8, !tbaa !78
  ret i32 %.0
}